target datalayout = "e-m:e-p270:32:32-p271:32:32-p272:64:64-i64:64-i128:128-f80:128-n8:16:32:64-S128"
target triple = "x86_64-unknown-linux-gnu"

%"struct.OpenImageIO_v2_6_0::TypeDesc" = type { i8, i8, i8, i8, i32 }
%"struct.OpenImageIO_v2_6_0::ParamValue::Copy" = type { %"struct.OpenImageIO_v2_6_0::StrongParam" }
%"struct.OpenImageIO_v2_6_0::StrongParam" = type { i8 }
%"struct.OpenImageIO_v2_6_0::ParamValue::FromUstring" = type { %"struct.OpenImageIO_v2_6_0::StrongParam.0" }
%"struct.OpenImageIO_v2_6_0::StrongParam.0" = type { i8 }
%"class.OpenImageIO_v2_6_0::ustring" = type { ptr }
%"class.OpenImageIO_v2_6_0::ParamValue" = type <{ %"class.OpenImageIO_v2_6_0::ustring", %"struct.OpenImageIO_v2_6_0::TypeDesc", %union.anon.1, i32, i8, i8, i8, i8 }>
%union.anon.1 = type { ptr, [8 x i8] }

; Function Attrs: mustprogress nounwind uwtable
define linkonce_odr hidden void @_ZN18OpenImageIO_v2_6_011StrongParamINS_10ParamValue11FromUstringEbEC2ERKb(ptr noundef nonnull align 1 dereferenceable(1) %this, ptr noundef nonnull align 1 dereferenceable(1) %val) unnamed_addr #4 comdat align 2 {
entry:
  %this.addr = alloca ptr, align 8
  %val.addr = alloca ptr, align 8
  store ptr %this, ptr %this.addr, align 8
  store ptr %val, ptr %val.addr, align 8
  %this1 = load ptr, ptr %this.addr, align 8
  %m_val = getelementptr inbounds %"struct.OpenImageIO_v2_6_0::StrongParam.0", ptr %this1, i32 0, i32 0
  %0 = load ptr, ptr %val.addr, align 8
  %1 = load i8, ptr %0, align 1
  %tobool = trunc i8 %1 to i1
  %frombool = zext i1 %tobool to i8
  store i8 %frombool, ptr %m_val, align 1
  ret void
}

; Function Attrs: mustprogress nounwind uwtable
define linkonce_odr hidden void @_ZN18OpenImageIO_v2_6_011StrongParamINS_10ParamValue4CopyEbEC2ERKb(ptr noundef nonnull align 1 dereferenceable(1) %this, ptr noundef nonnull align 1 dereferenceable(1) %val) unnamed_addr #4 comdat align 2 {
entry:
  %this.addr = alloca ptr, align 8
  %val.addr = alloca ptr, align 8
  store ptr %this, ptr %this.addr, align 8
  store ptr %val, ptr %val.addr, align 8
  %this1 = load ptr, ptr %this.addr, align 8
  %m_val = getelementptr inbounds %"struct.OpenImageIO_v2_6_0::StrongParam", ptr %this1, i32 0, i32 0
  %0 = load ptr, ptr %val.addr, align 8
  %1 = load i8, ptr %0, align 1
  %tobool = trunc i8 %1 to i1
  %frombool = zext i1 %tobool to i8
  store i8 %frombool, ptr %m_val, align 1
  ret void
}

; Function Attrs: mustprogress nounwind uwtable
define linkonce_odr void @_ZN18OpenImageIO_v2_6_08TypeDescC2ERKS0_(ptr noundef nonnull align 4 dereferenceable(8) %this, ptr noundef nonnull align 4 dereferenceable(8) %t) unnamed_addr #4 comdat align 2 {
entry:
  %this.addr = alloca ptr, align 8
  %t.addr = alloca ptr, align 8
  store ptr %this, ptr %this.addr, align 8
  store ptr %t, ptr %t.addr, align 8
  %this1 = load ptr, ptr %this.addr, align 8
  %basetype = getelementptr inbounds %"struct.OpenImageIO_v2_6_0::TypeDesc", ptr %this1, i32 0, i32 0
  %0 = load ptr, ptr %t.addr, align 8
  %basetype2 = getelementptr inbounds %"struct.OpenImageIO_v2_6_0::TypeDesc", ptr %0, i32 0, i32 0
  %1 = load i8, ptr %basetype2, align 4
  store i8 %1, ptr %basetype, align 4
  %aggregate = getelementptr inbounds %"struct.OpenImageIO_v2_6_0::TypeDesc", ptr %this1, i32 0, i32 1
  %2 = load ptr, ptr %t.addr, align 8
  %aggregate3 = getelementptr inbounds %"struct.OpenImageIO_v2_6_0::TypeDesc", ptr %2, i32 0, i32 1
  %3 = load i8, ptr %aggregate3, align 1
  store i8 %3, ptr %aggregate, align 1
  %vecsemantics = getelementptr inbounds %"struct.OpenImageIO_v2_6_0::TypeDesc", ptr %this1, i32 0, i32 2
  %4 = load ptr, ptr %t.addr, align 8
  %vecsemantics4 = getelementptr inbounds %"struct.OpenImageIO_v2_6_0::TypeDesc", ptr %4, i32 0, i32 2
  %5 = load i8, ptr %vecsemantics4, align 2
  store i8 %5, ptr %vecsemantics, align 2
  %reserved = getelementptr inbounds %"struct.OpenImageIO_v2_6_0::TypeDesc", ptr %this1, i32 0, i32 3
  store i8 0, ptr %reserved, align 1
  %arraylen = getelementptr inbounds %"struct.OpenImageIO_v2_6_0::TypeDesc", ptr %this1, i32 0, i32 4
  %6 = load ptr, ptr %t.addr, align 8
  %arraylen5 = getelementptr inbounds %"struct.OpenImageIO_v2_6_0::TypeDesc", ptr %6, i32 0, i32 4
  %7 = load i32, ptr %arraylen5, align 4
  store i32 %7, ptr %arraylen, align 4
  ret void
}

; Function Attrs: noreturn nounwind uwtable
define linkonce_odr hidden void @__clang_call_terminate(ptr noundef %0) #8 comdat {
  %2 = call ptr @__cxa_begin_catch(ptr %0) #3
  call void @_ZSt9terminatev() #18
  unreachable
}

; Function Attrs: mustprogress nounwind uwtable
define linkonce_odr void @_ZN18OpenImageIO_v2_6_07ustringD2Ev(ptr noundef nonnull align 8 dereferenceable(8) %this) unnamed_addr #4 comdat align 2 {
entry:
  %this.addr = alloca ptr, align 8
  store ptr %this, ptr %this.addr, align 8
  ret void
}

; Function Attrs: mustprogress uwtable
define linkonce_odr void @_ZN18OpenImageIO_v2_6_010ParamValue11FromUstringCI2NS_11StrongParamIS1_bEEERKb(ptr noundef nonnull align 1 dereferenceable(1) %this, ptr noundef nonnull align 1 dereferenceable(1) %0) unnamed_addr #7 comdat align 2 {
entry:
  %this.addr = alloca ptr, align 8
  %.addr = alloca ptr, align 8
  store ptr %this, ptr %this.addr, align 8
  store ptr %0, ptr %.addr, align 8
  %this1 = load ptr, ptr %this.addr, align 8
  %1 = load ptr, ptr %.addr, align 8
  call void @_ZN18OpenImageIO_v2_6_011StrongParamINS_10ParamValue11FromUstringEbEC2ERKb(ptr noundef nonnull align 1 dereferenceable(1) %this1, ptr noundef nonnull align 1 dereferenceable(1) %1)
  ret void
}

; Function Attrs: mustprogress uwtable
define linkonce_odr void @_ZN18OpenImageIO_v2_6_010ParamValue4CopyCI2NS_11StrongParamIS1_bEEERKb(ptr noundef nonnull align 1 dereferenceable(1) %this, ptr noundef nonnull align 1 dereferenceable(1) %0) unnamed_addr #7 comdat align 2 {
entry:
  %this.addr = alloca ptr, align 8
  %.addr = alloca ptr, align 8
  store ptr %this, ptr %this.addr, align 8
  store ptr %0, ptr %.addr, align 8
  %this1 = load ptr, ptr %this.addr, align 8
  %1 = load ptr, ptr %.addr, align 8
  call void @_ZN18OpenImageIO_v2_6_011StrongParamINS_10ParamValue4CopyEbEC2ERKb(ptr noundef nonnull align 1 dereferenceable(1) %this1, ptr noundef nonnull align 1 dereferenceable(1) %1)
  ret void
}

; Function Attrs: mustprogress nounwind uwtable
define linkonce_odr noundef ptr @_ZNK18OpenImageIO_v2_6_010ParamValue4dataEv(ptr noundef nonnull align 8 dereferenceable(39) %this) #4 comdat align 2 {
entry:
  %this.addr = alloca ptr, align 8
  store ptr %this, ptr %this.addr, align 8
  %this1 = load ptr, ptr %this.addr, align 8
  %m_nonlocal = getelementptr inbounds %"class.OpenImageIO_v2_6_0::ParamValue", ptr %this1, i32 0, i32 6
  %0 = load i8, ptr %m_nonlocal, align 2
  %tobool = trunc i8 %0 to i1
  br i1 %tobool, label %cond.true, label %cond.false

cond.true:                                        ; preds = %entry
  %m_data = getelementptr inbounds %"class.OpenImageIO_v2_6_0::ParamValue", ptr %this1, i32 0, i32 2
  %1 = load ptr, ptr %m_data, align 8
  br label %cond.end

cond.false:                                       ; preds = %entry
  %m_data2 = getelementptr inbounds %"class.OpenImageIO_v2_6_0::ParamValue", ptr %this1, i32 0, i32 2
  br label %cond.end

cond.end:                                         ; preds = %cond.false, %cond.true
  %cond = phi ptr [ %1, %cond.true ], [ %m_data2, %cond.false ]
  ret ptr %cond
}

; Function Attrs: mustprogress nounwind uwtable
define linkonce_odr noundef i32 @_ZNK18OpenImageIO_v2_6_010ParamValue6interpEv(ptr noundef nonnull align 8 dereferenceable(39) %this) #4 comdat align 2 {
entry:
  %this.addr = alloca ptr, align 8
  store ptr %this, ptr %this.addr, align 8
  %this1 = load ptr, ptr %this.addr, align 8
  %m_interp = getelementptr inbounds %"class.OpenImageIO_v2_6_0::ParamValue", ptr %this1, i32 0, i32 4
  %0 = load i8, ptr %m_interp, align 4
  %conv = zext i8 %0 to i32
  ret i32 %conv
}

; Function Attrs: mustprogress nounwind uwtable
define linkonce_odr noundef i32 @_ZNK18OpenImageIO_v2_6_010ParamValue7nvaluesEv(ptr noundef nonnull align 8 dereferenceable(39) %this) #4 comdat align 2 {
entry:
  %this.addr = alloca ptr, align 8
  store ptr %this, ptr %this.addr, align 8
  %this1 = load ptr, ptr %this.addr, align 8
  %m_nvalues = getelementptr inbounds %"class.OpenImageIO_v2_6_0::ParamValue", ptr %this1, i32 0, i32 3
  %0 = load i32, ptr %m_nvalues, align 8
  ret i32 %0
}

; Function Attrs: mustprogress nounwind uwtable
define linkonce_odr void @_ZNK18OpenImageIO_v2_6_010ParamValue4typeEv(ptr noalias sret(%"struct.OpenImageIO_v2_6_0::TypeDesc") align 4 %agg.result, ptr noundef nonnull align 8 dereferenceable(39) %this) #4 comdat align 2 {
entry:
  %result.ptr = alloca ptr, align 8
  %this.addr = alloca ptr, align 8
  store ptr %agg.result, ptr %result.ptr, align 8
  store ptr %this, ptr %this.addr, align 8
  %this1 = load ptr, ptr %this.addr, align 8
  %m_type = getelementptr inbounds %"class.OpenImageIO_v2_6_0::ParamValue", ptr %this1, i32 0, i32 1
  call void @_ZN18OpenImageIO_v2_6_08TypeDescC2ERKS0_(ptr noundef nonnull align 4 dereferenceable(8) %agg.result, ptr noundef nonnull align 4 dereferenceable(8) %m_type) #3
  ret void
}

; Function Attrs: mustprogress nounwind uwtable
define linkonce_odr void @_ZN18OpenImageIO_v2_6_07ustringC2ERKS0_(ptr noundef nonnull align 8 dereferenceable(8) %this, ptr noundef nonnull align 8 dereferenceable(8) %str) unnamed_addr #4 comdat align 2 {
entry:
  %this.addr = alloca ptr, align 8
  %str.addr = alloca ptr, align 8
  store ptr %this, ptr %this.addr, align 8
  store ptr %str, ptr %str.addr, align 8
  %this1 = load ptr, ptr %this.addr, align 8
  %m_chars = getelementptr inbounds %"class.OpenImageIO_v2_6_0::ustring", ptr %this1, i32 0, i32 0
  %0 = load ptr, ptr %str.addr, align 8
  %m_chars2 = getelementptr inbounds %"class.OpenImageIO_v2_6_0::ustring", ptr %0, i32 0, i32 0
  %1 = load ptr, ptr %m_chars2, align 8
  store ptr %1, ptr %m_chars, align 8
  ret void
}

; Function Attrs: mustprogress nounwind uwtable
define linkonce_odr noundef nonnull align 8 dereferenceable(8) ptr @_ZNK18OpenImageIO_v2_6_010ParamValue4nameEv(ptr noundef nonnull align 8 dereferenceable(39) %this) #4 comdat align 2 {
entry:
  %this.addr = alloca ptr, align 8
  store ptr %this, ptr %this.addr, align 8
  %this1 = load ptr, ptr %this.addr, align 8
  %m_name = getelementptr inbounds %"class.OpenImageIO_v2_6_0::ParamValue", ptr %this1, i32 0, i32 0
  ret ptr %m_name
}

; Function Attrs: mustprogress nounwind uwtable
define void @_ZN18OpenImageIO_v2_6_010ParamValue11clear_valueEv(ptr noundef nonnull align 8 dereferenceable(39) %this) #4 align 2 {
entry:
  %this.addr = alloca ptr, align 8
  store ptr %this, ptr %this.addr, align 8
  %this1 = load ptr, ptr %this.addr, align 8
  %m_copy = getelementptr inbounds %"class.OpenImageIO_v2_6_0::ParamValue", ptr %this1, i32 0, i32 5
  %0 = load i8, ptr %m_copy, align 1
  %tobool = trunc i8 %0 to i1
  br i1 %tobool, label %land.lhs.true, label %if.end

land.lhs.true:                                    ; preds = %entry
  %m_nonlocal = getelementptr inbounds %"class.OpenImageIO_v2_6_0::ParamValue", ptr %this1, i32 0, i32 6
  %1 = load i8, ptr %m_nonlocal, align 2
  %tobool2 = trunc i8 %1 to i1
  br i1 %tobool2, label %land.lhs.true3, label %if.end

land.lhs.true3:                                   ; preds = %land.lhs.true
  %m_data = getelementptr inbounds %"class.OpenImageIO_v2_6_0::ParamValue", ptr %this1, i32 0, i32 2
  %2 = load ptr, ptr %m_data, align 8
  %tobool4 = icmp ne ptr %2, null
  br i1 %tobool4, label %if.then, label %if.end

if.then:                                          ; preds = %land.lhs.true3
  %m_data5 = getelementptr inbounds %"class.OpenImageIO_v2_6_0::ParamValue", ptr %this1, i32 0, i32 2
  %3 = load ptr, ptr %m_data5, align 8
  call void @free(ptr noundef %3) #3
  br label %if.end

if.end:                                           ; preds = %if.then, %land.lhs.true3, %land.lhs.true, %entry
  %m_data6 = getelementptr inbounds %"class.OpenImageIO_v2_6_0::ParamValue", ptr %this1, i32 0, i32 2
  store ptr null, ptr %m_data6, align 8
  %m_copy7 = getelementptr inbounds %"class.OpenImageIO_v2_6_0::ParamValue", ptr %this1, i32 0, i32 5
  store i8 0, ptr %m_copy7, align 1
  %m_nonlocal8 = getelementptr inbounds %"class.OpenImageIO_v2_6_0::ParamValue", ptr %this1, i32 0, i32 6
  store i8 0, ptr %m_nonlocal8, align 2
  ret void
}

; Function Attrs: mustprogress nounwind uwtable
define noundef nonnull align 8 dereferenceable(39) ptr @_ZN18OpenImageIO_v2_6_010ParamValueaSEOS0_(ptr noundef nonnull align 8 dereferenceable(39) %this, ptr noundef nonnull align 8 dereferenceable(39) %p) #4 align 2 personality ptr @__gxx_personality_v0 {
entry:
  %this.addr = alloca ptr, align 8
  %p.addr = alloca ptr, align 8
  %agg.tmp = alloca %"class.OpenImageIO_v2_6_0::ustring", align 8
  %agg.tmp2 = alloca %"struct.OpenImageIO_v2_6_0::TypeDesc", align 4
  %agg.tmp6 = alloca %"struct.OpenImageIO_v2_6_0::ParamValue::Copy", align 1
  %ref.tmp = alloca i8, align 1
  %agg.tmp7 = alloca %"struct.OpenImageIO_v2_6_0::ParamValue::FromUstring", align 1
  %ref.tmp8 = alloca i8, align 1
  store ptr %this, ptr %this.addr, align 8
  store ptr %p, ptr %p.addr, align 8
  %this1 = load ptr, ptr %this.addr, align 8
  %0 = load ptr, ptr %p.addr, align 8
  %cmp = icmp ne ptr %this1, %0
  br i1 %cmp, label %if.then, label %if.end

if.then:                                          ; preds = %entry
  call void @_ZN18OpenImageIO_v2_6_010ParamValue11clear_valueEv(ptr noundef nonnull align 8 dereferenceable(39) %this1) #3
  %1 = load ptr, ptr %p.addr, align 8
  %call = call noundef nonnull align 8 dereferenceable(8) ptr @_ZNK18OpenImageIO_v2_6_010ParamValue4nameEv(ptr noundef nonnull align 8 dereferenceable(39) %1) #3
  call void @_ZN18OpenImageIO_v2_6_07ustringC2ERKS0_(ptr noundef nonnull align 8 dereferenceable(8) %agg.tmp, ptr noundef nonnull align 8 dereferenceable(8) %call) #3
  %2 = load ptr, ptr %p.addr, align 8
  call void @_ZNK18OpenImageIO_v2_6_010ParamValue4typeEv(ptr sret(%"struct.OpenImageIO_v2_6_0::TypeDesc") align 4 %agg.tmp2, ptr noundef nonnull align 8 dereferenceable(39) %2) #3
  %3 = load ptr, ptr %p.addr, align 8
  %call3 = call noundef i32 @_ZNK18OpenImageIO_v2_6_010ParamValue7nvaluesEv(ptr noundef nonnull align 8 dereferenceable(39) %3) #3
  %4 = load ptr, ptr %p.addr, align 8
  %call4 = call noundef i32 @_ZNK18OpenImageIO_v2_6_010ParamValue6interpEv(ptr noundef nonnull align 8 dereferenceable(39) %4) #3
  %5 = load ptr, ptr %p.addr, align 8
  %call5 = call noundef ptr @_ZNK18OpenImageIO_v2_6_010ParamValue4dataEv(ptr noundef nonnull align 8 dereferenceable(39) %5) #3
  store i8 0, ptr %ref.tmp, align 1
  invoke void @_ZN18OpenImageIO_v2_6_010ParamValue4CopyCI2NS_11StrongParamIS1_bEEERKb(ptr noundef nonnull align 1 dereferenceable(1) %agg.tmp6, ptr noundef nonnull align 1 dereferenceable(1) %ref.tmp)
          to label %invoke.cont unwind label %terminate.lpad

invoke.cont:                                      ; preds = %if.then
  store i8 1, ptr %ref.tmp8, align 1
  invoke void @_ZN18OpenImageIO_v2_6_010ParamValue11FromUstringCI2NS_11StrongParamIS1_bEEERKb(ptr noundef nonnull align 1 dereferenceable(1) %agg.tmp7, ptr noundef nonnull align 1 dereferenceable(1) %ref.tmp8)
          to label %invoke.cont9 unwind label %terminate.lpad

invoke.cont9:                                     ; preds = %invoke.cont
  %coerce.dive = getelementptr inbounds %"struct.OpenImageIO_v2_6_0::ParamValue::Copy", ptr %agg.tmp6, i32 0, i32 0
  %coerce.dive10 = getelementptr inbounds %"struct.OpenImageIO_v2_6_0::StrongParam", ptr %coerce.dive, i32 0, i32 0
  %6 = load i8, ptr %coerce.dive10, align 1
  %coerce.dive11 = getelementptr inbounds %"struct.OpenImageIO_v2_6_0::ParamValue::FromUstring", ptr %agg.tmp7, i32 0, i32 0
  %coerce.dive12 = getelementptr inbounds %"struct.OpenImageIO_v2_6_0::StrongParam.0", ptr %coerce.dive11, i32 0, i32 0
  %7 = load i8, ptr %coerce.dive12, align 1
  call void @_ZN18OpenImageIO_v2_6_010ParamValue12init_noclearENS_7ustringENS_8TypeDescEiNS0_6InterpEPKvNS0_4CopyENS0_11FromUstringE(ptr noundef nonnull align 8 dereferenceable(39) %this1, ptr noundef %agg.tmp, ptr noundef %agg.tmp2, i32 noundef %call3, i32 noundef %call4, ptr noundef %call5, i8 %6, i8 %7) #3
  call void @_ZN18OpenImageIO_v2_6_07ustringD2Ev(ptr noundef nonnull align 8 dereferenceable(8) %agg.tmp) #3
  %8 = load ptr, ptr %p.addr, align 8
  %m_copy = getelementptr inbounds %"class.OpenImageIO_v2_6_0::ParamValue", ptr %8, i32 0, i32 5
  %9 = load i8, ptr %m_copy, align 1
  %tobool = trunc i8 %9 to i1
  %m_copy13 = getelementptr inbounds %"class.OpenImageIO_v2_6_0::ParamValue", ptr %this1, i32 0, i32 5
  %frombool = zext i1 %tobool to i8
  store i8 %frombool, ptr %m_copy13, align 1
  %10 = load ptr, ptr %p.addr, align 8
  %m_nonlocal = getelementptr inbounds %"class.OpenImageIO_v2_6_0::ParamValue", ptr %10, i32 0, i32 6
  %11 = load i8, ptr %m_nonlocal, align 2
  %tobool14 = trunc i8 %11 to i1
  %m_nonlocal15 = getelementptr inbounds %"class.OpenImageIO_v2_6_0::ParamValue", ptr %this1, i32 0, i32 6
  %frombool16 = zext i1 %tobool14 to i8
  store i8 %frombool16, ptr %m_nonlocal15, align 2
  %12 = load ptr, ptr %p.addr, align 8
  %m_data = getelementptr inbounds %"class.OpenImageIO_v2_6_0::ParamValue", ptr %12, i32 0, i32 2
  store ptr null, ptr %m_data, align 8
  br label %if.end

if.end:                                           ; preds = %invoke.cont9, %entry
  ret ptr %this1

terminate.lpad:                                   ; preds = %invoke.cont, %if.then
  %13 = landingpad { ptr, i32 }
          catch ptr null
  %14 = extractvalue { ptr, i32 } %13, 0
  call void @__clang_call_terminate(ptr %14) #18
  unreachable
}